(lp0
(dp1
Vdomain
p2
V.bilibili.com
p3
sVname
p4
V_jct
p5
sVvalue
p6
V832f62e05e0f11e6bd8c5222330125f2
p7
sVexpiry
p8
I1470733747
sVpath
p9
V/
p10
sVhttpOnly
p11
I00
sVsecure
p12
I00
sa(dp13
Vdomain
p14
V.bilibili.com
p15
sVname
p16
VDedeUserID
p17
sVvalue
p18
V37709924
p19
sVexpiry
p20
I1473325158
sVpath
p21
g10
sVhttpOnly
p22
I00
sVsecure
p23
I00
sa(dp24
Vdomain
p25
V.bilibili.com
p26
sVname
p27
VDedeUserID__ckMd5
p28
sVvalue
p29
V5c03a273facb8fab
p30
sVexpiry
p31
I1473325158
sVpath
p32
g10
sVhttpOnly
p33
I00
sVsecure
p34
I00
sa(dp35
Vdomain
p36
V.bilibili.com
p37
sVname
p38
VSESSDATA
p39
sVvalue
p40
V5c2fe18e%2C1473325151%2C073b1126
p41
sVexpiry
p42
I1473325158
sVpath
p43
g10
sVhttpOnly
p44
I00
sVsecure
p45
I00
sa(dp46
Vdomain
p47
V.bilibili.com
p48
sVname
p49
Vsid
p50
sVvalue
p51
Vkov86srb
p52
sVexpiry
p53
NsVpath
p54
g10
sVhttpOnly
p55
I00
sVsecure
p56
I00
sa(dp57
Vdomain
p58
V.bilibili.com
p59
sVname
p60
V_cnt_dyn
p61
sVvalue
p62
Vnull
p63
sVexpiry
p64
I1502269152
sVpath
p65
g10
sVhttpOnly
p66
I00
sVsecure
p67
I00
sa(dp68
Vdomain
p69
V.bilibili.com
p70
sVname
p71
V_cnt_pm
p72
sVvalue
p73
V0
p74
sVexpiry
p75
I1502269152
sVpath
p76
g10
sVhttpOnly
p77
I00
sVsecure
p78
I00
sa(dp79
Vdomain
p80
V.bilibili.com
p81
sVname
p82
V_cnt_notify
p83
sVvalue
p84
g74
sVexpiry
p85
I1502269152
sVpath
p86
g10
sVhttpOnly
p87
I00
sVsecure
p88
I00
sa(dp89
Vdomain
p90
V.bilibili.com
p91
sVname
p92
VuTZ
p93
sVvalue
p94
V-480
p95
sVexpiry
p96
L2398348800L
sVpath
p97
g10
sVhttpOnly
p98
I00
sVsecure
p99
I00
sa(dp100
Vdomain
p101
V.bilibili.com
p102
sVname
p103
Vpgv_pvi
p104
sVvalue
p105
V192534528
p106
sVexpiry
p107
I2147385600
sVpath
p108
g10
sVhttpOnly
p109
I00
sVsecure
p110
I00
sa(dp111
Vdomain
p112
V.bilibili.com
p113
sVname
p114
Vpgv_si
p115
sVvalue
p116
Vs4370524160
p117
sVexpiry
p118
NsVpath
p119
g10
sVhttpOnly
p120
I00
sVsecure
p121
I00
sa(dp122
Vdomain
p123
Vwww.bilibili.com
p124
sVname
p125
VCNZZDATA2724999
p126
sVvalue
p127
Vcnzz_eid%3D1724705950-1470733154-%26ntime%3D1470733154
p128
sVexpiry
p129
I1486457952
sVpath
p130
g10
sVhttpOnly
p131
I00
sVsecure
p132
I00
sa(dp133
Vdomain
p134
V.bilibili.com
p135
sVname
p136
VLIVE_LOGIN_DATA
p137
sVvalue
p138
V0fec45fe1a378654ecedf29f5d2c21ec19d24e91
p139
sVexpiry
p140
I1470992352
sVpath
p141
g10
sVhttpOnly
p142
I00
sVsecure
p143
I00
sa(dp144
Vdomain
p145
V.bilibili.com
p146
sVname
p147
VLIVE_LOGIN_DATA__ckMd5
p148
sVvalue
p149
V58bf32f6af3f1240
p150
sVexpiry
p151
I1470992352
sVpath
p152
g10
sVhttpOnly
p153
I00
sVsecure
p154
I00
sa(dp155
Vdomain
p156
V.bilibili.com
p157
sVname
p158
Vfts
p159
sVvalue
p160
V1470733153
p161
sVexpiry
p162
I1565341152
sVpath
p163
g10
sVhttpOnly
p164
I00
sVsecure
p165
I00
sa(dp166
Vdomain
p167
V.bilibili.com
p168
sVname
p169
Vrlc_time
p170
sVvalue
p171
V1470733152646
p172
sVexpiry
p173
I1470743952
sVpath
p174
g10
sVhttpOnly
p175
I00
sVsecure
p176
I00
sa(dp177
Vdomain
p178
V.bilibili.com
p179
sVname
p180
V_dfcaptcha
p181
sVvalue
p182
V3c06a91c4d197e1841ee2bb318345f79
p183
sVexpiry
p184
I1470736752
sVpath
p185
g10
sVhttpOnly
p186
I01
sVsecure
p187
I00
sa.